target datalayout = "e-m:e-p270:32:32-p271:32:32-p272:64:64-i64:64-i128:128-f80:128-n8:16:32:64-S128"
target triple = "x86_64-unknown-linux-gnu"

%"class.fmt::v9::basic_string_view" = type { ptr, i64 }
%"class.fmt::v9::basic_format_args" = type { i64, %union.anon.4 }
%union.anon.4 = type { ptr }
%"class.fmt::v9::detail::buffer" = type { ptr, ptr, i64, i64 }
%"class.fmt::v9::basic_memory_buffer" = type <{ %"class.fmt::v9::detail::buffer", [500 x i8], %"class.std::allocator", [3 x i8] }>
%"class.std::allocator" = type { i8 }
%"class.fmt::v9::detail::locale_ref" = type { ptr }

@_ZTVN3fmt2v919basic_memory_bufferIcLm500ESaIcEEE = linkonce_odr dso_local unnamed_addr constant { [3 x ptr] } { [3 x ptr] [ptr null, ptr @_ZTIN3fmt2v919basic_memory_bufferIcLm500ESaIcEEE, ptr @_ZN3fmt2v919basic_memory_bufferIcLm500ESaIcEE4growEm] }, comdat, align 8
@_ZTVN3fmt2v96detail6bufferIcEE = linkonce_odr dso_local unnamed_addr constant { [3 x ptr] } { [3 x ptr] [ptr null, ptr @_ZTIN3fmt2v96detail6bufferIcEE, ptr @__cxa_pure_virtual] }, comdat, align 8

; Function Attrs: mustprogress nounwind uwtable
define linkonce_odr dso_local noundef i64 @_ZNK3fmt2v917basic_string_viewIcE4sizeEv(ptr noundef nonnull align 8 dereferenceable(16) %this) #4 comdat align 2 {
entry:
  %this.addr = alloca ptr, align 8
  store ptr %this, ptr %this.addr, align 8
  %this1 = load ptr, ptr %this.addr, align 8
  %size_ = getelementptr inbounds %"class.fmt::v9::basic_string_view", ptr %this1, i32 0, i32 1
  %0 = load i64, ptr %size_, align 8
  ret i64 %0
}

; Function Attrs: mustprogress nounwind uwtable
define linkonce_odr dso_local noundef ptr @_ZNK3fmt2v917basic_string_viewIcE4dataEv(ptr noundef nonnull align 8 dereferenceable(16) %this) #4 comdat align 2 {
entry:
  %this.addr = alloca ptr, align 8
  store ptr %this, ptr %this.addr, align 8
  %this1 = load ptr, ptr %this.addr, align 8
  %data_ = getelementptr inbounds %"class.fmt::v9::basic_string_view", ptr %this1, i32 0, i32 0
  %0 = load ptr, ptr %data_, align 8
  ret ptr %0
}

; Function Attrs: mustprogress nounwind uwtable
define linkonce_odr dso_local void @_ZN3fmt2v96detail6bufferIcE3setEPcm(ptr noundef nonnull align 8 dereferenceable(32) %this, ptr noundef %buf_data, i64 noundef %buf_capacity) #4 comdat align 2 {
entry:
  %this.addr = alloca ptr, align 8
  %buf_data.addr = alloca ptr, align 8
  %buf_capacity.addr = alloca i64, align 8
  store ptr %this, ptr %this.addr, align 8
  store ptr %buf_data, ptr %buf_data.addr, align 8
  store i64 %buf_capacity, ptr %buf_capacity.addr, align 8
  %this1 = load ptr, ptr %this.addr, align 8
  %0 = load ptr, ptr %buf_data.addr, align 8
  %ptr_ = getelementptr inbounds %"class.fmt::v9::detail::buffer", ptr %this1, i32 0, i32 1
  store ptr %0, ptr %ptr_, align 8
  %1 = load i64, ptr %buf_capacity.addr, align 8
  %capacity_ = getelementptr inbounds %"class.fmt::v9::detail::buffer", ptr %this1, i32 0, i32 3
  store i64 %1, ptr %capacity_, align 8
  ret void
}

; Function Attrs: mustprogress nounwind uwtable
define linkonce_odr dso_local void @_ZN3fmt2v96detail6bufferIcEC2EPcmm(ptr noundef nonnull align 8 dereferenceable(32) %this, ptr noundef %p, i64 noundef %sz, i64 noundef %cap) unnamed_addr #4 comdat align 2 {
entry:
  %this.addr = alloca ptr, align 8
  %p.addr = alloca ptr, align 8
  %sz.addr = alloca i64, align 8
  %cap.addr = alloca i64, align 8
  store ptr %this, ptr %this.addr, align 8
  store ptr %p, ptr %p.addr, align 8
  store i64 %sz, ptr %sz.addr, align 8
  store i64 %cap, ptr %cap.addr, align 8
  %this1 = load ptr, ptr %this.addr, align 8
  store ptr getelementptr inbounds ({ [3 x ptr] }, ptr @_ZTVN3fmt2v96detail6bufferIcEE, i32 0, i32 0, i32 2), ptr %this1, align 8
  %ptr_ = getelementptr inbounds %"class.fmt::v9::detail::buffer", ptr %this1, i32 0, i32 1
  %0 = load ptr, ptr %p.addr, align 8
  store ptr %0, ptr %ptr_, align 8
  %size_ = getelementptr inbounds %"class.fmt::v9::detail::buffer", ptr %this1, i32 0, i32 2
  %1 = load i64, ptr %sz.addr, align 8
  store i64 %1, ptr %size_, align 8
  %capacity_ = getelementptr inbounds %"class.fmt::v9::detail::buffer", ptr %this1, i32 0, i32 3
  %2 = load i64, ptr %cap.addr, align 8
  store i64 %2, ptr %capacity_, align 8
  ret void
}

; Function Attrs: mustprogress uwtable
define dso_local void @_ZN3fmt2v96detail5printEP8_IO_FILENS0_17basic_string_viewIcEE(ptr noundef %f, ptr %text.coerce0, i64 %text.coerce1) #3 {
entry:
  %text = alloca %"class.fmt::v9::basic_string_view", align 8
  %f.addr = alloca ptr, align 8
  %0 = getelementptr inbounds { ptr, i64 }, ptr %text, i32 0, i32 0
  store ptr %text.coerce0, ptr %0, align 8
  %1 = getelementptr inbounds { ptr, i64 }, ptr %text, i32 0, i32 1
  store i64 %text.coerce1, ptr %1, align 8
  store ptr %f, ptr %f.addr, align 8
  %call = call noundef ptr @_ZNK3fmt2v917basic_string_viewIcE4dataEv(ptr noundef nonnull align 8 dereferenceable(16) %text) #17
  %call1 = call noundef i64 @_ZNK3fmt2v917basic_string_viewIcE4sizeEv(ptr noundef nonnull align 8 dereferenceable(16) %text) #17
  %2 = load ptr, ptr %f.addr, align 8
  call void @_ZN3fmt2v96detail12fwrite_fullyEPKvmmP8_IO_FILE(ptr noundef %call, i64 noundef 1, i64 noundef %call1, ptr noundef %2)
  ret void
}

; Function Attrs: mustprogress nounwind uwtable
define linkonce_odr dso_local void @_ZN3fmt2v917basic_string_viewIcEC2EPKcm(ptr noundef nonnull align 8 dereferenceable(16) %this, ptr noundef %s, i64 noundef %count) unnamed_addr #4 comdat align 2 {
entry:
  %this.addr = alloca ptr, align 8
  %s.addr = alloca ptr, align 8
  %count.addr = alloca i64, align 8
  store ptr %this, ptr %this.addr, align 8
  store ptr %s, ptr %s.addr, align 8
  store i64 %count, ptr %count.addr, align 8
  %this1 = load ptr, ptr %this.addr, align 8
  %data_ = getelementptr inbounds %"class.fmt::v9::basic_string_view", ptr %this1, i32 0, i32 0
  %0 = load ptr, ptr %s.addr, align 8
  store ptr %0, ptr %data_, align 8
  %size_ = getelementptr inbounds %"class.fmt::v9::basic_string_view", ptr %this1, i32 0, i32 1
  %1 = load i64, ptr %count.addr, align 8
  store i64 %1, ptr %size_, align 8
  ret void
}

; Function Attrs: mustprogress nounwind uwtable
define linkonce_odr dso_local noundef i64 @_ZNK3fmt2v96detail6bufferIcE4sizeEv(ptr noundef nonnull align 8 dereferenceable(32) %this) #4 comdat align 2 {
entry:
  %this.addr = alloca ptr, align 8
  store ptr %this, ptr %this.addr, align 8
  %this1 = load ptr, ptr %this.addr, align 8
  %size_ = getelementptr inbounds %"class.fmt::v9::detail::buffer", ptr %this1, i32 0, i32 2
  %0 = load i64, ptr %size_, align 8
  ret i64 %0
}

; Function Attrs: mustprogress nounwind uwtable
define linkonce_odr dso_local noundef ptr @_ZN3fmt2v96detail6bufferIcE4dataEv(ptr noundef nonnull align 8 dereferenceable(32) %this) #4 comdat align 2 {
entry:
  %this.addr = alloca ptr, align 8
  store ptr %this, ptr %this.addr, align 8
  %this1 = load ptr, ptr %this.addr, align 8
  %ptr_ = getelementptr inbounds %"class.fmt::v9::detail::buffer", ptr %this1, i32 0, i32 1
  %0 = load ptr, ptr %ptr_, align 8
  ret ptr %0
}

; Function Attrs: mustprogress nounwind uwtable
define linkonce_odr dso_local void @_ZN3fmt2v96detail10locale_refC2Ev(ptr noundef nonnull align 8 dereferenceable(8) %this) unnamed_addr #4 comdat align 2 {
entry:
  %this.addr = alloca ptr, align 8
  store ptr %this, ptr %this.addr, align 8
  %this1 = load ptr, ptr %this.addr, align 8
  %locale_ = getelementptr inbounds %"class.fmt::v9::detail::locale_ref", ptr %this1, i32 0, i32 0
  store ptr null, ptr %locale_, align 8
  ret void
}

; Function Attrs: mustprogress nounwind uwtable
define linkonce_odr dso_local void @_ZN3fmt2v919basic_memory_bufferIcLm500ESaIcEEC2ERKS2_(ptr noundef nonnull align 8 dereferenceable(536) %this, ptr noundef nonnull align 1 dereferenceable(1) %alloc) unnamed_addr #4 comdat align 2 {
entry:
  %this.addr = alloca ptr, align 8
  %alloc.addr = alloca ptr, align 8
  store ptr %this, ptr %this.addr, align 8
  store ptr %alloc, ptr %alloc.addr, align 8
  %this1 = load ptr, ptr %this.addr, align 8
  call void @_ZN3fmt2v96detail6bufferIcEC2EPcmm(ptr noundef nonnull align 8 dereferenceable(32) %this1, ptr noundef null, i64 noundef 0, i64 noundef 0) #17
  store ptr getelementptr inbounds ({ [3 x ptr] }, ptr @_ZTVN3fmt2v919basic_memory_bufferIcLm500ESaIcEEE, i32 0, i32 0, i32 2), ptr %this1, align 8
  %alloc_ = getelementptr inbounds %"class.fmt::v9::basic_memory_buffer", ptr %this1, i32 0, i32 2
  %0 = load ptr, ptr %alloc.addr, align 8
  call void @_ZNSaIcEC1ERKS_(ptr noundef nonnull align 1 dereferenceable(1) %alloc_, ptr noundef nonnull align 1 dereferenceable(1) %0) #17
  %store_ = getelementptr inbounds %"class.fmt::v9::basic_memory_buffer", ptr %this1, i32 0, i32 1
  %arraydecay = getelementptr inbounds [500 x i8], ptr %store_, i64 0, i64 0
  call void @_ZN3fmt2v96detail6bufferIcE3setEPcm(ptr noundef nonnull align 8 dereferenceable(32) %this1, ptr noundef %arraydecay, i64 noundef 500) #17
  ret void
}

; Function Attrs: mustprogress uwtable
define dso_local void @_ZN3fmt2v96vprintEP8_IO_FILENS0_17basic_string_viewIcEENS0_17basic_format_argsINS0_20basic_format_contextINS0_8appenderEcEEEE(ptr noundef %f, ptr %format_str.coerce0, i64 %format_str.coerce1, i64 %args.coerce0, ptr %args.coerce1) #3 personality ptr @__gxx_personality_v0 {
entry:
  %format_str = alloca %"class.fmt::v9::basic_string_view", align 8
  %args = alloca %"class.fmt::v9::basic_format_args", align 8
  %f.addr = alloca ptr, align 8
  %buffer = alloca %"class.fmt::v9::basic_memory_buffer", align 8
  %ref.tmp = alloca %"class.std::allocator", align 1
  %exn.slot = alloca ptr, align 8
  %ehselector.slot = alloca i32, align 4
  %agg.tmp = alloca %"class.fmt::v9::basic_string_view", align 8
  %agg.tmp1 = alloca %"class.fmt::v9::basic_format_args", align 8
  %agg.tmp2 = alloca %"class.fmt::v9::detail::locale_ref", align 8
  %agg.tmp6 = alloca %"class.fmt::v9::basic_string_view", align 8
  %0 = getelementptr inbounds { ptr, i64 }, ptr %format_str, i32 0, i32 0
  store ptr %format_str.coerce0, ptr %0, align 8
  %1 = getelementptr inbounds { ptr, i64 }, ptr %format_str, i32 0, i32 1
  store i64 %format_str.coerce1, ptr %1, align 8
  %2 = getelementptr inbounds { i64, ptr }, ptr %args, i32 0, i32 0
  store i64 %args.coerce0, ptr %2, align 8
  %3 = getelementptr inbounds { i64, ptr }, ptr %args, i32 0, i32 1
  store ptr %args.coerce1, ptr %3, align 8
  store ptr %f, ptr %f.addr, align 8
  call void @_ZNSaIcEC1Ev(ptr noundef nonnull align 1 dereferenceable(1) %ref.tmp) #17
  invoke void @_ZN3fmt2v919basic_memory_bufferIcLm500ESaIcEEC2ERKS2_(ptr noundef nonnull align 8 dereferenceable(536) %buffer, ptr noundef nonnull align 1 dereferenceable(1) %ref.tmp)
          to label %invoke.cont unwind label %lpad

invoke.cont:                                      ; preds = %entry
  call void @_ZNSaIcED1Ev(ptr noundef nonnull align 1 dereferenceable(1) %ref.tmp) #17
  call void @llvm.memcpy.p0.p0.i64(ptr align 8 %agg.tmp, ptr align 8 %format_str, i64 16, i1 false)
  call void @llvm.memcpy.p0.p0.i64(ptr align 8 %agg.tmp1, ptr align 8 %args, i64 16, i1 false)
  invoke void @_ZN3fmt2v96detail10locale_refC2Ev(ptr noundef nonnull align 8 dereferenceable(8) %agg.tmp2)
          to label %invoke.cont4 unwind label %lpad3

invoke.cont4:                                     ; preds = %invoke.cont
  %4 = getelementptr inbounds { ptr, i64 }, ptr %agg.tmp, i32 0, i32 0
  %5 = load ptr, ptr %4, align 8
  %6 = getelementptr inbounds { ptr, i64 }, ptr %agg.tmp, i32 0, i32 1
  %7 = load i64, ptr %6, align 8
  %8 = getelementptr inbounds { i64, ptr }, ptr %agg.tmp1, i32 0, i32 0
  %9 = load i64, ptr %8, align 8
  %10 = getelementptr inbounds { i64, ptr }, ptr %agg.tmp1, i32 0, i32 1
  %11 = load ptr, ptr %10, align 8
  %coerce.dive = getelementptr inbounds %"class.fmt::v9::detail::locale_ref", ptr %agg.tmp2, i32 0, i32 0
  %12 = load ptr, ptr %coerce.dive, align 8
  invoke void @_ZN3fmt2v96detail10vformat_toIcEEvRNS1_6bufferIT_EENS0_17basic_string_viewIS4_EENS0_17basic_format_argsINS0_20basic_format_contextINSt11conditionalIXsr3std7is_sameINS0_13type_identityIS4_E4typeEcEE5valueENS0_8appenderESt20back_insert_iteratorINS3_ISE_EEEE4typeESE_EEEENS1_10locale_refE(ptr noundef nonnull align 8 dereferenceable(32) %buffer, ptr %5, i64 %7, i64 %9, ptr %11, ptr %12)
          to label %invoke.cont5 unwind label %lpad3

invoke.cont5:                                     ; preds = %invoke.cont4
  %13 = load ptr, ptr %f.addr, align 8
  %call = call noundef ptr @_ZN3fmt2v96detail6bufferIcE4dataEv(ptr noundef nonnull align 8 dereferenceable(32) %buffer) #17
  %call7 = call noundef i64 @_ZNK3fmt2v96detail6bufferIcE4sizeEv(ptr noundef nonnull align 8 dereferenceable(32) %buffer) #17
  call void @_ZN3fmt2v917basic_string_viewIcEC2EPKcm(ptr noundef nonnull align 8 dereferenceable(16) %agg.tmp6, ptr noundef %call, i64 noundef %call7) #17
  %14 = getelementptr inbounds { ptr, i64 }, ptr %agg.tmp6, i32 0, i32 0
  %15 = load ptr, ptr %14, align 8
  %16 = getelementptr inbounds { ptr, i64 }, ptr %agg.tmp6, i32 0, i32 1
  %17 = load i64, ptr %16, align 8
  invoke void @_ZN3fmt2v96detail5printEP8_IO_FILENS0_17basic_string_viewIcEE(ptr noundef %13, ptr %15, i64 %17)
          to label %invoke.cont8 unwind label %lpad3

invoke.cont8:                                     ; preds = %invoke.cont5
  call void @_ZN3fmt2v919basic_memory_bufferIcLm500ESaIcEED2Ev(ptr noundef nonnull align 8 dereferenceable(536) %buffer) #17
  ret void

lpad:                                             ; preds = %entry
  %18 = landingpad { ptr, i32 }
          cleanup
  %19 = extractvalue { ptr, i32 } %18, 0
  store ptr %19, ptr %exn.slot, align 8
  %20 = extractvalue { ptr, i32 } %18, 1
  store i32 %20, ptr %ehselector.slot, align 4
  call void @_ZNSaIcED1Ev(ptr noundef nonnull align 1 dereferenceable(1) %ref.tmp) #17
  br label %eh.resume

lpad3:                                            ; preds = %invoke.cont5, %invoke.cont4, %invoke.cont
  %21 = landingpad { ptr, i32 }
          cleanup
  %22 = extractvalue { ptr, i32 } %21, 0
  store ptr %22, ptr %exn.slot, align 8
  %23 = extractvalue { ptr, i32 } %21, 1
  store i32 %23, ptr %ehselector.slot, align 4
  call void @_ZN3fmt2v919basic_memory_bufferIcLm500ESaIcEED2Ev(ptr noundef nonnull align 8 dereferenceable(536) %buffer) #17
  br label %eh.resume

eh.resume:                                        ; preds = %lpad3, %lpad
  %exn = load ptr, ptr %exn.slot, align 8
  %sel = load i32, ptr %ehselector.slot, align 4
  %lpad.val = insertvalue { ptr, i32 } poison, ptr %exn, 0
  %lpad.val9 = insertvalue { ptr, i32 } %lpad.val, i32 %sel, 1
  resume { ptr, i32 } %lpad.val9
}